; Function Attrs: nounwind uwtable
define dso_local range(i32 0, 256) i32 @pq_getmsgbyte(ptr noundef captures(none) %0) local_unnamed_addr #0 {
  %2 = getelementptr inbounds nuw i8, ptr %0, i64 16
  %3 = load i32, ptr %2, align 8
  %4 = getelementptr inbounds nuw i8, ptr %0, i64 8
  %5 = load i32, ptr %4, align 8
  %.not = icmp slt i32 %3, %5
  br i1 %.not, label %10, label %6

6:                                                ; preds = %1
  %7 = tail call zeroext i1 @errstart_cold(i32 noundef 21, ptr noundef null) #11
  tail call void @llvm.assume(i1 %7)
  %8 = tail call i32 @errcode(i32 noundef 16908800) #9
  %9 = tail call i32 (ptr, ...) @errmsg(ptr noundef nonnull @.str) #9
  tail call void @errfinish(ptr noundef nonnull @.str.1, i32 noundef 404, ptr noundef nonnull @__func__.pq_getmsgbyte) #9
  unreachable

10:                                               ; preds = %1
  %11 = load ptr, ptr %0, align 8
  %12 = add nsw i32 %3, 1
  store i32 %12, ptr %2, align 8
  %13 = sext i32 %3 to i64
  %14 = getelementptr inbounds i8, ptr %11, i64 %13
  %15 = load i8, ptr %14, align 1
  %16 = zext i8 %15 to i32
  ret i32 %16
}